target datalayout = "e-m:e-p270:32:32-p271:32:32-p272:64:64-i64:64-i128:128-f80:128-n8:16:32:64-S128"
target triple = "x86_64-pc-linux-gnu"

; Function Attrs: inlinehint nounwind null_pointer_is_valid sspstrong uwtable
define internal i64 @pntoh64(ptr noundef %0) #7 {
  %2 = alloca ptr, align 8
  store ptr %0, ptr %2, align 8
  %3 = load ptr, ptr %2, align 8
  %4 = getelementptr i8, ptr %3, i64 0
  %5 = load i8, ptr %4, align 1
  %6 = zext i8 %5 to i64
  %7 = shl i64 %6, 56
  %8 = load ptr, ptr %2, align 8
  %9 = getelementptr i8, ptr %8, i64 1
  %10 = load i8, ptr %9, align 1
  %11 = zext i8 %10 to i64
  %12 = shl i64 %11, 48
  %13 = or i64 %7, %12
  %14 = load ptr, ptr %2, align 8
  %15 = getelementptr i8, ptr %14, i64 2
  %16 = load i8, ptr %15, align 1
  %17 = zext i8 %16 to i64
  %18 = shl i64 %17, 40
  %19 = or i64 %13, %18
  %20 = load ptr, ptr %2, align 8
  %21 = getelementptr i8, ptr %20, i64 3
  %22 = load i8, ptr %21, align 1
  %23 = zext i8 %22 to i64
  %24 = shl i64 %23, 32
  %25 = or i64 %19, %24
  %26 = load ptr, ptr %2, align 8
  %27 = getelementptr i8, ptr %26, i64 4
  %28 = load i8, ptr %27, align 1
  %29 = zext i8 %28 to i64
  %30 = shl i64 %29, 24
  %31 = or i64 %25, %30
  %32 = load ptr, ptr %2, align 8
  %33 = getelementptr i8, ptr %32, i64 5
  %34 = load i8, ptr %33, align 1
  %35 = zext i8 %34 to i64
  %36 = shl i64 %35, 16
  %37 = or i64 %31, %36
  %38 = load ptr, ptr %2, align 8
  %39 = getelementptr i8, ptr %38, i64 6
  %40 = load i8, ptr %39, align 1
  %41 = zext i8 %40 to i64
  %42 = shl i64 %41, 8
  %43 = or i64 %37, %42
  %44 = load ptr, ptr %2, align 8
  %45 = getelementptr i8, ptr %44, i64 7
  %46 = load i8, ptr %45, align 1
  %47 = zext i8 %46 to i64
  %48 = shl i64 %47, 0
  %49 = or i64 %43, %48
  ret i64 %49
}

; Function Attrs: inlinehint nounwind null_pointer_is_valid sspstrong uwtable
define internal i64 @pletoh64(ptr noundef %0) #7 {
  %2 = alloca ptr, align 8
  store ptr %0, ptr %2, align 8
  %3 = load ptr, ptr %2, align 8
  %4 = getelementptr i8, ptr %3, i64 7
  %5 = load i8, ptr %4, align 1
  %6 = zext i8 %5 to i64
  %7 = shl i64 %6, 56
  %8 = load ptr, ptr %2, align 8
  %9 = getelementptr i8, ptr %8, i64 6
  %10 = load i8, ptr %9, align 1
  %11 = zext i8 %10 to i64
  %12 = shl i64 %11, 48
  %13 = or i64 %7, %12
  %14 = load ptr, ptr %2, align 8
  %15 = getelementptr i8, ptr %14, i64 5
  %16 = load i8, ptr %15, align 1
  %17 = zext i8 %16 to i64
  %18 = shl i64 %17, 40
  %19 = or i64 %13, %18
  %20 = load ptr, ptr %2, align 8
  %21 = getelementptr i8, ptr %20, i64 4
  %22 = load i8, ptr %21, align 1
  %23 = zext i8 %22 to i64
  %24 = shl i64 %23, 32
  %25 = or i64 %19, %24
  %26 = load ptr, ptr %2, align 8
  %27 = getelementptr i8, ptr %26, i64 3
  %28 = load i8, ptr %27, align 1
  %29 = zext i8 %28 to i64
  %30 = shl i64 %29, 24
  %31 = or i64 %25, %30
  %32 = load ptr, ptr %2, align 8
  %33 = getelementptr i8, ptr %32, i64 2
  %34 = load i8, ptr %33, align 1
  %35 = zext i8 %34 to i64
  %36 = shl i64 %35, 16
  %37 = or i64 %31, %36
  %38 = load ptr, ptr %2, align 8
  %39 = getelementptr i8, ptr %38, i64 1
  %40 = load i8, ptr %39, align 1
  %41 = zext i8 %40 to i64
  %42 = shl i64 %41, 8
  %43 = or i64 %37, %42
  %44 = load ptr, ptr %2, align 8
  %45 = getelementptr i8, ptr %44, i64 0
  %46 = load i8, ptr %45, align 1
  %47 = zext i8 %46 to i64
  %48 = shl i64 %47, 0
  %49 = or i64 %43, %48
  ret i64 %49
}

; Function Attrs: null_pointer_is_valid sspstrong uwtable
define i64 @tvb_get_ntoh64(ptr noundef %0, i32 noundef %1) #0 {
  %3 = alloca ptr, align 8
  %4 = alloca i32, align 4
  %5 = alloca ptr, align 8
  store ptr %0, ptr %3, align 8
  store i32 %1, ptr %4, align 4
  call void @llvm.lifetime.start.p0(i64 8, ptr %5) #16
  %6 = load ptr, ptr %3, align 8
  %7 = load i32, ptr %4, align 4
  %8 = call ptr @fast_ensure_contiguous(ptr noundef %6, i32 noundef %7, i32 noundef 8)
  store ptr %8, ptr %5, align 8
  %9 = load ptr, ptr %5, align 8
  %10 = call i64 @pntoh64(ptr noundef %9)
  call void @llvm.lifetime.end.p0(i64 8, ptr %5) #16
  ret i64 %10
}

; Function Attrs: null_pointer_is_valid sspstrong uwtable
define i64 @tvb_get_letoh64(ptr noundef %0, i32 noundef %1) #0 {
  %3 = alloca ptr, align 8
  %4 = alloca i32, align 4
  %5 = alloca ptr, align 8
  store ptr %0, ptr %3, align 8
  store i32 %1, ptr %4, align 4
  call void @llvm.lifetime.start.p0(i64 8, ptr %5) #16
  %6 = load ptr, ptr %3, align 8
  %7 = load i32, ptr %4, align 4
  %8 = call ptr @fast_ensure_contiguous(ptr noundef %6, i32 noundef %7, i32 noundef 8)
  store ptr %8, ptr %5, align 8
  %9 = load ptr, ptr %5, align 8
  %10 = call i64 @pletoh64(ptr noundef %9)
  call void @llvm.lifetime.end.p0(i64 8, ptr %5) #16
  ret i64 %10
}

; Function Attrs: null_pointer_is_valid sspstrong uwtable
define i64 @tvb_get_uint64(ptr noundef %0, i32 noundef %1, i32 noundef %2) #0 {
  %4 = alloca i64, align 8
  %5 = alloca ptr, align 8
  %6 = alloca i32, align 4
  %7 = alloca i32, align 4
  store ptr %0, ptr %5, align 8
  store i32 %1, ptr %6, align 4
  store i32 %2, ptr %7, align 4
  %8 = load i32, ptr %7, align 4
  %9 = and i32 %8, -2147483648
  %10 = icmp ne i32 %9, 0
  br i1 %10, label %11, label %15

11:                                               ; preds = %3
  %12 = load ptr, ptr %5, align 8
  %13 = load i32, ptr %6, align 4
  %14 = call i64 @tvb_get_letoh64(ptr noundef %12, i32 noundef %13)
  store i64 %14, ptr %4, align 8
  br label %19

15:                                               ; preds = %3
  %16 = load ptr, ptr %5, align 8
  %17 = load i32, ptr %6, align 4
  %18 = call i64 @tvb_get_ntoh64(ptr noundef %16, i32 noundef %17)
  store i64 %18, ptr %4, align 8
  br label %19

19:                                               ; preds = %15, %11
  %20 = load i64, ptr %4, align 8
  ret i64 %20
}